target datalayout = "e-m:e-p270:32:32-p271:32:32-p272:64:64-i64:64-i128:128-f80:128-n8:16:32:64-S128"
target triple = "x86_64-pc-linux-gnu"

%struct.pm_node = type { i16, i16, i32, %struct.pm_location_t }
%struct.pm_location_t = type { ptr, ptr }
%struct.pm_regular_expression_node = type { %struct.pm_node, %struct.pm_location_t, %struct.pm_location_t, %struct.pm_location_t, %struct.pm_string_t }
%struct.pm_string_t = type { ptr, i64, i32 }

; Function Attrs: nounwind sspstrong uwtable
define internal i32 @pm_compare_regular_expression_nodes(ptr noundef %0, ptr noundef %1, ptr noundef %2) #0 {
  %4 = alloca i32, align 4
  %5 = alloca ptr, align 8
  %6 = alloca ptr, align 8
  %7 = alloca ptr, align 8
  %8 = alloca ptr, align 8
  %9 = alloca ptr, align 8
  %10 = alloca i32, align 4
  %11 = alloca i32, align 4
  store ptr %0, ptr %5, align 8, !tbaa !7
  store ptr %1, ptr %6, align 8, !tbaa !13
  store ptr %2, ptr %7, align 8, !tbaa !13
  call void @llvm.lifetime.start.p0(i64 8, ptr %8) #9
  %12 = load ptr, ptr %6, align 8, !tbaa !13
  store ptr %12, ptr %8, align 8, !tbaa !52
  call void @llvm.lifetime.start.p0(i64 8, ptr %9) #9
  %13 = load ptr, ptr %7, align 8, !tbaa !13
  store ptr %13, ptr %9, align 8, !tbaa !52
  call void @llvm.lifetime.start.p0(i64 4, ptr %10) #9
  %14 = load ptr, ptr %8, align 8, !tbaa !52
  %15 = getelementptr inbounds nuw %struct.pm_regular_expression_node, ptr %14, i32 0, i32 4
  %16 = load ptr, ptr %9, align 8, !tbaa !52
  %17 = getelementptr inbounds nuw %struct.pm_regular_expression_node, ptr %16, i32 0, i32 4
  %18 = call i32 @pm_string_compare(ptr noundef %15, ptr noundef %17)
  store i32 %18, ptr %10, align 4, !tbaa !11
  %19 = load i32, ptr %10, align 4, !tbaa !11
  %20 = icmp ne i32 %19, 0
  br i1 %20, label %21, label %23

21:                                               ; preds = %3
  %22 = load i32, ptr %10, align 4, !tbaa !11
  store i32 %22, ptr %4, align 4
  store i32 1, ptr %11, align 4
  br label %51

23:                                               ; preds = %3
  %24 = load ptr, ptr %8, align 8, !tbaa !52
  %25 = getelementptr inbounds nuw %struct.pm_regular_expression_node, ptr %24, i32 0, i32 0
  %26 = getelementptr inbounds nuw %struct.pm_node, ptr %25, i32 0, i32 1
  %27 = load i16, ptr %26, align 2, !tbaa !54
  %28 = zext i16 %27 to i32
  %29 = load ptr, ptr %9, align 8, !tbaa !52
  %30 = getelementptr inbounds nuw %struct.pm_regular_expression_node, ptr %29, i32 0, i32 0
  %31 = getelementptr inbounds nuw %struct.pm_node, ptr %30, i32 0, i32 1
  %32 = load i16, ptr %31, align 2, !tbaa !54
  %33 = zext i16 %32 to i32
  %34 = icmp slt i32 %28, %33
  br i1 %34, label %35, label %36

35:                                               ; preds = %23
  br label %49

36:                                               ; preds = %23
  %37 = load ptr, ptr %8, align 8, !tbaa !52
  %38 = getelementptr inbounds nuw %struct.pm_regular_expression_node, ptr %37, i32 0, i32 0
  %39 = getelementptr inbounds nuw %struct.pm_node, ptr %38, i32 0, i32 1
  %40 = load i16, ptr %39, align 2, !tbaa !54
  %41 = zext i16 %40 to i32
  %42 = load ptr, ptr %9, align 8, !tbaa !52
  %43 = getelementptr inbounds nuw %struct.pm_regular_expression_node, ptr %42, i32 0, i32 0
  %44 = getelementptr inbounds nuw %struct.pm_node, ptr %43, i32 0, i32 1
  %45 = load i16, ptr %44, align 2, !tbaa !54
  %46 = zext i16 %45 to i32
  %47 = icmp sgt i32 %41, %46
  %48 = select i1 %47, i32 1, i32 0
  br label %49

49:                                               ; preds = %36, %35
  %50 = phi i32 [ -1, %35 ], [ %48, %36 ]
  store i32 %50, ptr %4, align 4
  store i32 1, ptr %11, align 4
  br label %51

51:                                               ; preds = %49, %21
  call void @llvm.lifetime.end.p0(i64 4, ptr %10) #9
  call void @llvm.lifetime.end.p0(i64 8, ptr %9) #9
  call void @llvm.lifetime.end.p0(i64 8, ptr %8) #9
  %52 = load i32, ptr %4, align 4
  ret i32 %52
}