; Function Attrs: nounwind sspstrong uwtable
define internal i32 @pm_compare_regular_expression_nodes(ptr readnone captures(none) %0, ptr noundef %1, ptr noundef %2) #0 {
  %4 = getelementptr inbounds nuw i8, ptr %1, i64 72
  %5 = getelementptr inbounds nuw i8, ptr %2, i64 72
  %6 = tail call i32 @pm_string_compare(ptr noundef nonnull %4, ptr noundef nonnull %5) #9
  %.not = icmp eq i32 %6, 0
  br i1 %.not, label %7, label %13

7:                                                ; preds = %3
  %8 = getelementptr inbounds nuw i8, ptr %1, i64 2
  %9 = load i16, ptr %8, align 2, !tbaa !50
  %10 = getelementptr inbounds nuw i8, ptr %2, i64 2
  %11 = load i16, ptr %10, align 2, !tbaa !50
  %12 = tail call i32 @llvm.ucmp.i32.i16(i16 %9, i16 %11)
  br label %13

13:                                               ; preds = %3, %7
  %.0 = phi i32 [ %12, %7 ], [ %6, %3 ]
  ret i32 %.0
}